ccopy_reg
_reconstructor
p0
(ceasydict
EasyDict
p1
c__builtin__
dict
p2
(dp3
S'ppc'
p4
I25
sS'refineHoriz'
p5
I01
sS'slabAge'
p6
cpint
_build_quantity
p7
(F20.0
g0
(cpint.util
UnitsContainer
p8
c__builtin__
object
p9
Ntp10
Rp11
(dp12
V_d
p13
g0
(cpint.util
udict
p14
g2
(dp15
Vmegayear
p16
F1.0
stp17
Rp18
sV_hash
p19
I-6820194234560965957
sbtp20
Rp21
sS'slabInitMaxDepth'
p22
g7
(I150
g0
(g8
g9
Ntp23
Rp24
(dp25
g13
g0
(g14
g2
(dp26
Vkilometer
p27
F1.0
stp28
Rp29
sg19
I-4412262003307283843
sbtp30
Rp31
sS'penaltyMethod'
p32
I01
sS'druckerAlpha'
p33
F1.0
sS'radiusOfCurv'
p34
g7
(F200.0
g0
(g8
g9
Ntp35
Rp36
(dp37
g13
g0
(g14
g2
(dp38
g27
F1.0
stp39
Rp40
sg19
I-4412262003307283843
sbtp41
Rp42
sS'faultViscDepthTaperStart'
p43
g7
(I100
g0
(g8
g9
Ntp44
Rp45
(dp46
g13
g0
(g14
g2
(dp47
g27
F1.0
stp48
Rp49
sg19
I-4412262003307283843
sbtp50
Rp51
sS'faultViscHorizTaperWidth'
p52
g7
(I150
g0
(g8
g9
Ntp53
Rp54
(dp55
g13
g0
(g14
g2
(dp56
g27
F1.0
stp57
Rp58
sg19
I-4412262003307283843
sbtp59
Rp60
sS'lowerMantleDepth'
p61
g7
(F660.0
g0
(g8
g9
Ntp62
Rp63
(dp64
g13
g0
(g14
g2
(dp65
g27
F1.0
stp66
Rp67
sg19
I-4412262003307283843
sbtp68
Rp69
sS'res'
p70
F192.0
sS'viscosityMin'
p71
g7
(F1e+18
g0
(g8
g9
Ntp72
Rp73
(dp74
g13
g0
(g14
g2
(dp75
Vpascal
p76
F1.0
sVsecond
p77
F1.0
stp78
Rp79
sg19
I-5591898877647841442
sbtp80
Rp81
sS'wedgeThickness'
p82
g7
(I200
g0
(g8
g9
Ntp83
Rp84
(dp85
g13
g0
(g14
g2
(dp86
g27
F1.0
stp87
Rp88
sg19
I-4412262003307283843
sbtp89
Rp90
sS'wedgeViscosity'
p91
g7
(F2e+20
g0
(g8
g9
Ntp92
Rp93
(dp94
g13
g0
(g14
g2
(dp95
g76
F1.0
sg77
F1.0
stp96
Rp97
sg19
I-5591898877647841442
sbtp98
Rp99
sS'faultDestroyDepth'
p100
g7
(I300
g0
(g8
g9
Ntp101
Rp102
(dp103
g13
g0
(g14
g2
(dp104
g27
F1.0
stp105
Rp106
sg19
I-4412262003307283843
sbtp107
Rp108
sS'elementType'
p109
S'Q1/dQ0'
p110
sS'faultLocFac'
p111
F1.0
sS'viscosityMax'
p112
g7
(F1e+24
g0
(g8
g9
Ntp113
Rp114
(dp115
g13
g0
(g14
g2
(dp116
g76
F1.0
sg77
F1.0
stp117
Rp118
sg19
I-5591898877647841442
sbtp119
Rp120
sS'faultViscHorizTaperStart'
p121
g7
(I150
g0
(g8
g9
Ntp122
Rp123
(dp124
g13
g0
(g14
g2
(dp125
g27
F1.0
stp126
Rp127
sg19
I-4412262003307283843
sbtp128
Rp129
sS'subZoneLoc'
p130
g7
(I-100
g0
(g8
g9
Ntp131
Rp132
(dp133
g13
g0
(g14
g2
(dp134
g27
F1.0
stp135
Rp136
sg19
I-4412262003307283843
sbtp137
Rp138
sS'wedgeDeep'
p139
g7
(I150
g0
(g8
g9
Ntp140
Rp141
(dp142
g13
g0
(g14
g2
(dp143
g27
F1.0
stp144
Rp145
sg19
I-4412262003307283843
sbtp146
Rp147
sS'refineVert'
p148
I01
sS'faultViscDepthTaperWidth'
p149
g7
(I30
g0
(g8
g9
Ntp150
Rp151
(dp152
g13
g0
(g14
g2
(dp153
g27
F1.0
stp154
Rp155
sg19
I-4412262003307283843
sbtp156
Rp157
sS'wedgeShallow'
p158
g7
(F45.0
g0
(g8
g9
Ntp159
Rp160
(dp161
g13
g0
(g14
g2
(dp162
g27
F1.0
stp163
Rp164
sg19
I-4412262003307283843
sbtp165
Rp166
sS'restartParams'
p167
I01
sS'lowerMantleTransWidth'
p168
g7
(F100.0
g0
(g8
g9
Ntp169
Rp170
(dp171
g13
g0
(g14
g2
(dp172
g27
F1.0
stp173
Rp174
sg19
I-4412262003307283843
sbtp175
Rp176
sS'faultThickness'
p177
g7
(F7.0
g0
(g8
g9
Ntp178
Rp179
(dp180
g13
g0
(g14
g2
(dp181
g27
F1.0
stp182
Rp183
sg19
I-4412262003307283843
sbtp184
Rp185
sS'nltol'
p186
F0.01
sS'turnOffVels'
p187
I00
sS'checkpointEvery'
p188
I100
sS'buoyancyFac'
p189
F1.25
sS'meshRefineFactor'
p190
F0.7
sS'turnOnWedge'
p191
g7
(I20
g0
(g8
g9
Ntp192
Rp193
(dp194
g13
g0
(g14
g2
(dp195
g16
F1.0
stp196
Rp197
sg19
I-6820194234560965957
sbtp198
Rp199
sS'depth'
p200
g7
(F1250.0
g0
(g8
g9
Ntp201
Rp202
(dp203
g13
g0
(g14
g2
(dp204
g27
F1.0
stp205
Rp206
sg19
I-4412262003307283843
sbtp207
Rp208
sS'opAgeAtTrench'
p209
g7
(F10.0
g0
(g8
g9
Ntp210
Rp211
(dp212
g13
g0
(g14
g2
(dp213
g16
F1.0
stp214
Rp215
sg19
I-6820194234560965957
sbtp216
Rp217
sS'aspectRatio'
p218
F4.0
stp219
Rp220
(dp221
g4
I25
sg5
I01
sg167
I01
sg82
g90
sg22
g31
sg191
g199
sg33
F1.0
sg34
g42
sg188
I100
sg43
g51
sg71
g81
sg61
g69
sg70
F192.0
sg52
g60
sg100
g108
sg91
g99
sg168
g176
sg109
g110
sg111
F1.0
sg112
g120
sg121
g129
sg130
g138
sg139
g147
sg149
g157
sg158
g166
sg6
g21
sg177
g185
sg186
F0.01
sg187
I00
sg148
I01
sg189
F1.25
sg190
F0.7
sg32
I01
sg200
g208
sg209
g217
sg218
F4.0
sb.