ccopy_reg
_reconstructor
p0
(ceasydict
EasyDict
p1
c__builtin__
dict
p2
(dp3
S'refViscosity'
p4
cpint
_build_quantity
p5
(F1e+20
g0
(cpint.util
UnitsContainer
p6
c__builtin__
object
p7
Ntp8
Rp9
(dp10
V_d
p11
g0
(cpint.util
udict
p12
g2
(dp13
Vpascal
p14
F1.0
sVsecond
p15
F1.0
stp16
Rp17
sV_hash
p18
I-5591898877647841442
sbtp19
Rp20
sS'adiabaticTempGrad'
p21
g5
(F0.00036985124760076783
g0
(g6
g7
Ntp22
Rp23
(dp24
g11
g0
(g12
g2
(dp25
Vkelvin
p26
F1.0
sg15
F-2.0
sVjoule
p27
F-1.0
sVkilogram
p28
F1.0
sVmeter
p29
F1.0
stp30
Rp31
sg18
I8325068938381973631
sbtp32
Rp33
sS'diffusionVolume'
p34
g5
(F5e-06
g0
(g6
g7
Ntp35
Rp36
(dp37
g11
g0
(g12
g2
(dp38
Vmole
p39
F-1.0
sg29
F3.0
stp40
Rp41
sg18
I-9184792575399977810
sbtp42
Rp43
sS'yieldStressMax'
p44
g5
(F100.0
g0
(g6
g7
Ntp45
Rp46
(dp47
g11
g0
(g12
g2
(dp48
Vmegapascal
p49
F1.0
stp50
Rp51
sg18
I1012745708474633402
sbtp52
Rp53
sS'viscosityFault'
p54
g5
(F9e+18
g0
(g6
g7
Ntp55
Rp56
(dp57
g11
g0
(g12
g2
(dp58
g14
F1.0
sg15
F1.0
stp59
Rp60
sg18
I-5591898877647841442
sbtp61
Rp62
sS'potentialTemp_'
p63
g5
(F1300.0
g0
(g6
g7
Ntp64
Rp65
(dp66
g11
g0
(g12
g2
(dp67
g26
F1.0
stp68
Rp69
sg18
I6369073192305681123
sbtp70
Rp71
sS'refExpansivity'
p72
g5
(F3e-05
g0
(g6
g7
Ntp73
Rp74
(dp75
g11
g0
(g12
g2
(dp76
g26
F-1.0
stp77
Rp78
sg18
I-2208513024938943422
sbtp79
Rp80
sS'diffusionEnergy'
p81
g5
(F300000.0
g0
(g6
g7
Ntp82
Rp83
(dp84
g11
g0
(g12
g2
(dp85
g27
F1.0
sg39
F-1.0
stp86
Rp87
sg18
I-2078587484837160776
sbtp88
Rp89
sS'refLength'
p90
g5
(I2900
g0
(g6
g7
Ntp91
Rp92
(dp93
g11
g0
(g12
g2
(dp94
Vkilometer
p95
F1.0
stp96
Rp97
sg18
I-4412262003307283843
sbtp98
Rp99
sS'frictionMantleDepth'
p100
g5
(F3234.0000000000005
g0
(g6
g7
Ntp101
Rp102
(dp103
g11
g0
(g12
g2
(dp104
g15
F-2.0
sg29
F-2.0
sg28
F1.0
stp105
Rp106
sg18
I7580026228029348526
sbtp107
Rp108
sS'potentialTemp'
p109
g5
(F1573.0
g65
tp110
Rp111
sS'diffusionVolumeDepth'
p112
g5
(F0.019449121962954053
g0
(g6
g7
Ntp113
Rp114
(dp115
g11
g0
(g12
g2
(dp116
g26
F1.0
sg29
F-1.0
stp117
Rp118
sg18
I-2578751399749644768
sbtp119
Rp120
sS'surfaceTemp_'
p121
g5
(F0.0
g0
(g6
g7
Ntp122
Rp123
(dp124
g11
g0
(g12
g2
(dp125
g26
F1.0
stp126
Rp127
sg18
I6369073192305681123
sbtp128
Rp129
sS'surfaceTemp'
p130
g5
(F273.0
g123
tp131
Rp132
sS'gasConstant'
p133
g5
(F8.314
g0
(g6
g7
Ntp134
Rp135
(dp136
g11
g0
(g12
g2
(dp137
g26
F-1.0
sg27
F1.0
sg39
F-1.0
stp138
Rp139
sg18
I-8980239685943528542
sbtp140
Rp141
sS'cohesionMantle'
p142
g5
(F20.0
g0
(g6
g7
Ntp143
Rp144
(dp145
g11
g0
(g12
g2
(dp146
g49
F1.0
stp147
Rp148
sg18
I1012745708474633402
sbtp149
Rp150
sS'refDensity'
p151
g5
(F3300.0
g0
(g6
g7
Ntp152
Rp153
(dp154
g11
g0
(g12
g2
(dp155
g29
F-3.0
sg28
F1.0
stp156
Rp157
sg18
I-3288824393776739998
sbtp158
Rp159
sS'lowerMantleViscFac'
p160
g5
(F5.0
g0
(g6
g7
Ntp161
Rp162
(dp163
g11
g0
(g12
g2
(dp164
tp165
Rp166
sg18
I133156838395276
sbtp167
Rp168
sS'frictionMantle'
p169
g5
(F0.1
g0
(g6
g7
Ntp170
Rp171
(dp172
g11
g0
(g12
g2
(dp173
tp174
Rp175
sg18
I133156838395276
sbtp176
Rp177
sS'specificHeat'
p178
g5
(F1250.4
g0
(g6
g7
Ntp179
Rp180
(dp181
g11
g0
(g12
g2
(dp182
g26
F-1.0
sg27
F1.0
sg28
F-1.0
stp183
Rp184
sg18
I8963989608489277909
sbtp185
Rp186
sS'diffusionEnergyDepth'
p187
g5
(F36083.714216983404
g0
(g6
g7
Ntp188
Rp189
(dp190
g11
g0
(g12
g2
(dp191
g26
F1.0
stp192
Rp193
sg18
I6369073192305681123
sbtp194
Rp195
sS'refGravity'
p196
g5
(F9.8
g0
(g6
g7
Ntp197
Rp198
(dp199
g11
g0
(g12
g2
(dp200
g15
F-2.0
sg29
F1.0
stp201
Rp202
sg18
I-8988206639060857525
sbtp203
Rp204
sS'refDiffusivity'
p205
g5
(F1e-06
g0
(g6
g7
Ntp206
Rp207
(dp208
g11
g0
(g12
g2
(dp209
g15
F-1.0
sg29
F2.0
stp210
Rp211
sg18
I7849710394750750206
sbtp212
Rp213
sS'diffusionPreExp'
p214
g5
(F5.34e-10
g0
(g6
g7
Ntp215
Rp216
(dp217
g11
g0
(g12
g2
(dp218
g14
F-1.0
sg15
F-1.0
stp219
Rp220
sg18
I8447856571283191902
sbtp221
Rp222
stp223
Rp224
(dp225
g4
g20
sg34
g43
sg160
g168
sg72
g80
sg81
g89
sg90
g99
sg109
g111
sg133
g141
sg151
g159
sg63
g71
sg196
g204
sg205
g213
sg21
g33
sg44
g53
sg54
g62
sg100
g108
sg112
g120
sg121
g129
sg130
g132
sg142
g150
sg169
g177
sg178
g186
sg187
g195
sg214
g222
sb.